target datalayout = "e-m:e-p270:32:32-p271:32:32-p272:64:64-i64:64-i128:128-f80:128-n8:16:32:64-S128"
target triple = "x86_64-pc-linux-gnu"

%struct.AVFilterContext = type { ptr, ptr, ptr, ptr, ptr, i32, ptr, ptr, i32, ptr, ptr, i32, i32, ptr, ptr, ptr, ptr, i32, ptr, i32, i32 }
%struct.GEQContext = type { ptr, [4 x [32 x ptr]], [7 x ptr], ptr, ptr, ptr, ptr, [8 x double], i32, i32, i32, i32, i32, i32, [4 x ptr], [4 x i32] }
%struct.ThreadData = type { i32, i32, i32, i32 }

; Function Attrs: nounwind uwtable
define internal i32 @slice_geq_filter(ptr noundef %0, ptr noundef %1, i32 noundef %2, i32 noundef %3) #1 {
  %5 = alloca ptr, align 8
  %6 = alloca ptr, align 8
  %7 = alloca i32, align 4
  %8 = alloca i32, align 4
  %9 = alloca ptr, align 8
  %10 = alloca ptr, align 8
  %11 = alloca i32, align 4
  %12 = alloca i32, align 4
  %13 = alloca i32, align 4
  %14 = alloca i32, align 4
  %15 = alloca i32, align 4
  %16 = alloca i32, align 4
  %17 = alloca i32, align 4
  %18 = alloca i32, align 4
  %19 = alloca [8 x double], align 16
  %20 = alloca ptr, align 8
  %21 = alloca ptr, align 8
  %22 = alloca ptr, align 8
  store ptr %0, ptr %5, align 8, !tbaa !4
  store ptr %1, ptr %6, align 8, !tbaa !34
  store i32 %2, ptr %7, align 4, !tbaa !24
  store i32 %3, ptr %8, align 4, !tbaa !24
  call void @llvm.lifetime.start.p0(i64 8, ptr %9) #11
  %23 = load ptr, ptr %5, align 8, !tbaa !4
  %24 = getelementptr inbounds nuw %struct.AVFilterContext, ptr %23, i32 0, i32 9
  %25 = load ptr, ptr %24, align 8, !tbaa !9
  store ptr %25, ptr %9, align 8, !tbaa !22
  call void @llvm.lifetime.start.p0(i64 8, ptr %10) #11
  %26 = load ptr, ptr %6, align 8, !tbaa !34
  store ptr %26, ptr %10, align 8, !tbaa !107
  call void @llvm.lifetime.start.p0(i64 4, ptr %11) #11
  %27 = load ptr, ptr %10, align 8, !tbaa !107
  %28 = getelementptr inbounds nuw %struct.ThreadData, ptr %27, i32 0, i32 0
  %29 = load i32, ptr %28, align 4, !tbaa !79
  store i32 %29, ptr %11, align 4, !tbaa !24
  call void @llvm.lifetime.start.p0(i64 4, ptr %12) #11
  %30 = load ptr, ptr %10, align 8, !tbaa !107
  %31 = getelementptr inbounds nuw %struct.ThreadData, ptr %30, i32 0, i32 1
  %32 = load i32, ptr %31, align 4, !tbaa !77
  store i32 %32, ptr %12, align 4, !tbaa !24
  call void @llvm.lifetime.start.p0(i64 4, ptr %13) #11
  %33 = load ptr, ptr %10, align 8, !tbaa !107
  %34 = getelementptr inbounds nuw %struct.ThreadData, ptr %33, i32 0, i32 2
  %35 = load i32, ptr %34, align 4, !tbaa !80
  store i32 %35, ptr %13, align 4, !tbaa !24
  call void @llvm.lifetime.start.p0(i64 4, ptr %14) #11
  %36 = load ptr, ptr %10, align 8, !tbaa !107
  %37 = getelementptr inbounds nuw %struct.ThreadData, ptr %36, i32 0, i32 3
  %38 = load i32, ptr %37, align 4, !tbaa !81
  store i32 %38, ptr %14, align 4, !tbaa !24
  call void @llvm.lifetime.start.p0(i64 4, ptr %15) #11
  %39 = load i32, ptr %11, align 4, !tbaa !24
  %40 = load i32, ptr %7, align 4, !tbaa !24
  %41 = mul nsw i32 %39, %40
  %42 = load i32, ptr %8, align 4, !tbaa !24
  %43 = sdiv i32 %41, %42
  store i32 %43, ptr %15, align 4, !tbaa !24
  call void @llvm.lifetime.start.p0(i64 4, ptr %16) #11
  %44 = load i32, ptr %11, align 4, !tbaa !24
  %45 = load i32, ptr %7, align 4, !tbaa !24
  %46 = add nsw i32 %45, 1
  %47 = mul nsw i32 %44, %46
  %48 = load i32, ptr %8, align 4, !tbaa !24
  %49 = sdiv i32 %47, %48
  store i32 %49, ptr %16, align 4, !tbaa !24
  call void @llvm.lifetime.start.p0(i64 4, ptr %17) #11
  call void @llvm.lifetime.start.p0(i64 4, ptr %18) #11
  call void @llvm.lifetime.start.p0(i64 64, ptr %19) #11
  %50 = load ptr, ptr %9, align 8, !tbaa !22
  %51 = getelementptr inbounds nuw %struct.GEQContext, ptr %50, i32 0, i32 7
  %52 = getelementptr inbounds [8 x double], ptr %51, i64 0, i64 2
  %53 = load double, ptr %52, align 8, !tbaa !62
  %54 = getelementptr inbounds [8 x double], ptr %19, i64 0, i64 2
  store double %53, ptr %54, align 16, !tbaa !62
  %55 = load ptr, ptr %9, align 8, !tbaa !22
  %56 = getelementptr inbounds nuw %struct.GEQContext, ptr %55, i32 0, i32 7
  %57 = getelementptr inbounds [8 x double], ptr %56, i64 0, i64 3
  %58 = load double, ptr %57, align 8, !tbaa !62
  %59 = getelementptr inbounds [8 x double], ptr %19, i64 0, i64 3
  store double %58, ptr %59, align 8, !tbaa !62
  %60 = load ptr, ptr %9, align 8, !tbaa !22
  %61 = getelementptr inbounds nuw %struct.GEQContext, ptr %60, i32 0, i32 7
  %62 = getelementptr inbounds [8 x double], ptr %61, i64 0, i64 4
  %63 = load double, ptr %62, align 8, !tbaa !62
  %64 = getelementptr inbounds [8 x double], ptr %19, i64 0, i64 4
  store double %63, ptr %64, align 16, !tbaa !62
  %65 = load ptr, ptr %9, align 8, !tbaa !22
  %66 = getelementptr inbounds nuw %struct.GEQContext, ptr %65, i32 0, i32 7
  %67 = getelementptr inbounds [8 x double], ptr %66, i64 0, i64 5
  %68 = load double, ptr %67, align 8, !tbaa !62
  %69 = getelementptr inbounds [8 x double], ptr %19, i64 0, i64 5
  store double %68, ptr %69, align 8, !tbaa !62
  %70 = load ptr, ptr %9, align 8, !tbaa !22
  %71 = getelementptr inbounds nuw %struct.GEQContext, ptr %70, i32 0, i32 7
  %72 = getelementptr inbounds [8 x double], ptr %71, i64 0, i64 6
  %73 = load double, ptr %72, align 8, !tbaa !62
  %74 = getelementptr inbounds [8 x double], ptr %19, i64 0, i64 6
  store double %73, ptr %74, align 16, !tbaa !62
  %75 = load ptr, ptr %9, align 8, !tbaa !22
  %76 = getelementptr inbounds nuw %struct.GEQContext, ptr %75, i32 0, i32 7
  %77 = getelementptr inbounds [8 x double], ptr %76, i64 0, i64 7
  %78 = load double, ptr %77, align 8, !tbaa !62
  %79 = getelementptr inbounds [8 x double], ptr %19, i64 0, i64 7
  store double %78, ptr %79, align 8, !tbaa !62
  %80 = load ptr, ptr %9, align 8, !tbaa !22
  %81 = getelementptr inbounds nuw %struct.GEQContext, ptr %80, i32 0, i32 13
  %82 = load i32, ptr %81, align 4, !tbaa !31
  %83 = icmp eq i32 %82, 8
  br i1 %83, label %84, label %139

84:                                               ; preds = %4
  call void @llvm.lifetime.start.p0(i64 8, ptr %20) #11
  %85 = load ptr, ptr %9, align 8, !tbaa !22
  %86 = getelementptr inbounds nuw %struct.GEQContext, ptr %85, i32 0, i32 4
  %87 = load ptr, ptr %86, align 8, !tbaa !74
  %88 = load i32, ptr %14, align 4, !tbaa !24
  %89 = load i32, ptr %15, align 4, !tbaa !24
  %90 = mul nsw i32 %88, %89
  %91 = sext i32 %90 to i64
  %92 = getelementptr inbounds i8, ptr %87, i64 %91
  store ptr %92, ptr %20, align 8, !tbaa !25
  %93 = load i32, ptr %15, align 4, !tbaa !24
  store i32 %93, ptr %18, align 4, !tbaa !24
  br label %94

94:                                               ; preds = %135, %84
  %95 = load i32, ptr %18, align 4, !tbaa !24
  %96 = load i32, ptr %16, align 4, !tbaa !24
  %97 = icmp slt i32 %95, %96
  br i1 %97, label %98, label %138

98:                                               ; preds = %94
  %99 = load i32, ptr %18, align 4, !tbaa !24
  %100 = sitofp i32 %99 to double
  %101 = getelementptr inbounds [8 x double], ptr %19, i64 0, i64 1
  store double %100, ptr %101, align 8, !tbaa !62
  store i32 0, ptr %17, align 4, !tbaa !24
  br label %102

102:                                              ; preds = %127, %98
  %103 = load i32, ptr %17, align 4, !tbaa !24
  %104 = load i32, ptr %12, align 4, !tbaa !24
  %105 = icmp slt i32 %103, %104
  br i1 %105, label %106, label %130

106:                                              ; preds = %102
  %107 = load i32, ptr %17, align 4, !tbaa !24
  %108 = sitofp i32 %107 to double
  %109 = getelementptr inbounds [8 x double], ptr %19, i64 0, i64 0
  store double %108, ptr %109, align 16, !tbaa !62
  %110 = load ptr, ptr %9, align 8, !tbaa !22
  %111 = getelementptr inbounds nuw %struct.GEQContext, ptr %110, i32 0, i32 1
  %112 = load i32, ptr %13, align 4, !tbaa !24
  %113 = sext i32 %112 to i64
  %114 = getelementptr inbounds [4 x [32 x ptr]], ptr %111, i64 0, i64 %113
  %115 = load i32, ptr %7, align 4, !tbaa !24
  %116 = sext i32 %115 to i64
  %117 = getelementptr inbounds [32 x ptr], ptr %114, i64 0, i64 %116
  %118 = load ptr, ptr %117, align 8, !tbaa !37
  %119 = getelementptr inbounds [8 x double], ptr %19, i64 0, i64 0
  %120 = load ptr, ptr %9, align 8, !tbaa !22
  %121 = call nsz double @av_expr_eval(ptr noundef %118, ptr noundef %119, ptr noundef %120)
  %122 = fptoui double %121 to i8
  %123 = load ptr, ptr %20, align 8, !tbaa !25
  %124 = load i32, ptr %17, align 4, !tbaa !24
  %125 = sext i32 %124 to i64
  %126 = getelementptr inbounds i8, ptr %123, i64 %125
  store i8 %122, ptr %126, align 1, !tbaa !99
  br label %127

127:                                              ; preds = %106
  %128 = load i32, ptr %17, align 4, !tbaa !24
  %129 = add nsw i32 %128, 1
  store i32 %129, ptr %17, align 4, !tbaa !24
  br label %102, !llvm.loop !109

130:                                              ; preds = %102
  %131 = load i32, ptr %14, align 4, !tbaa !24
  %132 = load ptr, ptr %20, align 8, !tbaa !25
  %133 = sext i32 %131 to i64
  %134 = getelementptr inbounds i8, ptr %132, i64 %133
  store ptr %134, ptr %20, align 8, !tbaa !25
  br label %135

135:                                              ; preds = %130
  %136 = load i32, ptr %18, align 4, !tbaa !24
  %137 = add nsw i32 %136, 1
  store i32 %137, ptr %18, align 4, !tbaa !24
  br label %94, !llvm.loop !110

138:                                              ; preds = %94
  call void @llvm.lifetime.end.p0(i64 8, ptr %20) #11
  br label %259

139:                                              ; preds = %4
  %140 = load ptr, ptr %9, align 8, !tbaa !22
  %141 = getelementptr inbounds nuw %struct.GEQContext, ptr %140, i32 0, i32 13
  %142 = load i32, ptr %141, align 4, !tbaa !31
  %143 = icmp sle i32 %142, 16
  br i1 %143, label %144, label %201

144:                                              ; preds = %139
  call void @llvm.lifetime.start.p0(i64 8, ptr %21) #11
  %145 = load ptr, ptr %9, align 8, !tbaa !22
  %146 = getelementptr inbounds nuw %struct.GEQContext, ptr %145, i32 0, i32 5
  %147 = load ptr, ptr %146, align 8, !tbaa !75
  %148 = load i32, ptr %14, align 4, !tbaa !24
  %149 = sdiv i32 %148, 2
  %150 = load i32, ptr %15, align 4, !tbaa !24
  %151 = mul nsw i32 %149, %150
  %152 = sext i32 %151 to i64
  %153 = getelementptr inbounds i16, ptr %147, i64 %152
  store ptr %153, ptr %21, align 8, !tbaa !95
  %154 = load i32, ptr %15, align 4, !tbaa !24
  store i32 %154, ptr %18, align 4, !tbaa !24
  br label %155

155:                                              ; preds = %197, %144
  %156 = load i32, ptr %18, align 4, !tbaa !24
  %157 = load i32, ptr %16, align 4, !tbaa !24
  %158 = icmp slt i32 %156, %157
  br i1 %158, label %159, label %200

159:                                              ; preds = %155
  %160 = load i32, ptr %18, align 4, !tbaa !24
  %161 = sitofp i32 %160 to double
  %162 = getelementptr inbounds [8 x double], ptr %19, i64 0, i64 1
  store double %161, ptr %162, align 8, !tbaa !62
  store i32 0, ptr %17, align 4, !tbaa !24
  br label %163

163:                                              ; preds = %188, %159
  %164 = load i32, ptr %17, align 4, !tbaa !24
  %165 = load i32, ptr %12, align 4, !tbaa !24
  %166 = icmp slt i32 %164, %165
  br i1 %166, label %167, label %191

167:                                              ; preds = %163
  %168 = load i32, ptr %17, align 4, !tbaa !24
  %169 = sitofp i32 %168 to double
  %170 = getelementptr inbounds [8 x double], ptr %19, i64 0, i64 0
  store double %169, ptr %170, align 16, !tbaa !62
  %171 = load ptr, ptr %9, align 8, !tbaa !22
  %172 = getelementptr inbounds nuw %struct.GEQContext, ptr %171, i32 0, i32 1
  %173 = load i32, ptr %13, align 4, !tbaa !24
  %174 = sext i32 %173 to i64
  %175 = getelementptr inbounds [4 x [32 x ptr]], ptr %172, i64 0, i64 %174
  %176 = load i32, ptr %7, align 4, !tbaa !24
  %177 = sext i32 %176 to i64
  %178 = getelementptr inbounds [32 x ptr], ptr %175, i64 0, i64 %177
  %179 = load ptr, ptr %178, align 8, !tbaa !37
  %180 = getelementptr inbounds [8 x double], ptr %19, i64 0, i64 0
  %181 = load ptr, ptr %9, align 8, !tbaa !22
  %182 = call nsz double @av_expr_eval(ptr noundef %179, ptr noundef %180, ptr noundef %181)
  %183 = fptoui double %182 to i16
  %184 = load ptr, ptr %21, align 8, !tbaa !95
  %185 = load i32, ptr %17, align 4, !tbaa !24
  %186 = sext i32 %185 to i64
  %187 = getelementptr inbounds i16, ptr %184, i64 %186
  store i16 %183, ptr %187, align 2, !tbaa !96
  br label %188

188:                                              ; preds = %167
  %189 = load i32, ptr %17, align 4, !tbaa !24
  %190 = add nsw i32 %189, 1
  store i32 %190, ptr %17, align 4, !tbaa !24
  br label %163, !llvm.loop !111

191:                                              ; preds = %163
  %192 = load i32, ptr %14, align 4, !tbaa !24
  %193 = sdiv i32 %192, 2
  %194 = load ptr, ptr %21, align 8, !tbaa !95
  %195 = sext i32 %193 to i64
  %196 = getelementptr inbounds i16, ptr %194, i64 %195
  store ptr %196, ptr %21, align 8, !tbaa !95
  br label %197

197:                                              ; preds = %191
  %198 = load i32, ptr %18, align 4, !tbaa !24
  %199 = add nsw i32 %198, 1
  store i32 %199, ptr %18, align 4, !tbaa !24
  br label %155, !llvm.loop !112

200:                                              ; preds = %155
  call void @llvm.lifetime.end.p0(i64 8, ptr %21) #11
  br label %258

201:                                              ; preds = %139
  call void @llvm.lifetime.start.p0(i64 8, ptr %22) #11
  %202 = load ptr, ptr %9, align 8, !tbaa !22
  %203 = getelementptr inbounds nuw %struct.GEQContext, ptr %202, i32 0, i32 6
  %204 = load ptr, ptr %203, align 8, !tbaa !76
  %205 = load i32, ptr %14, align 4, !tbaa !24
  %206 = sdiv i32 %205, 4
  %207 = load i32, ptr %15, align 4, !tbaa !24
  %208 = mul nsw i32 %206, %207
  %209 = sext i32 %208 to i64
  %210 = getelementptr inbounds float, ptr %204, i64 %209
  store ptr %210, ptr %22, align 8, !tbaa !101
  %211 = load i32, ptr %15, align 4, !tbaa !24
  store i32 %211, ptr %18, align 4, !tbaa !24
  br label %212

212:                                              ; preds = %254, %201
  %213 = load i32, ptr %18, align 4, !tbaa !24
  %214 = load i32, ptr %16, align 4, !tbaa !24
  %215 = icmp slt i32 %213, %214
  br i1 %215, label %216, label %257

216:                                              ; preds = %212
  %217 = load i32, ptr %18, align 4, !tbaa !24
  %218 = sitofp i32 %217 to double
  %219 = getelementptr inbounds [8 x double], ptr %19, i64 0, i64 1
  store double %218, ptr %219, align 8, !tbaa !62
  store i32 0, ptr %17, align 4, !tbaa !24
  br label %220

220:                                              ; preds = %245, %216
  %221 = load i32, ptr %17, align 4, !tbaa !24
  %222 = load i32, ptr %12, align 4, !tbaa !24
  %223 = icmp slt i32 %221, %222
  br i1 %223, label %224, label %248

224:                                              ; preds = %220
  %225 = load i32, ptr %17, align 4, !tbaa !24
  %226 = sitofp i32 %225 to double
  %227 = getelementptr inbounds [8 x double], ptr %19, i64 0, i64 0
  store double %226, ptr %227, align 16, !tbaa !62
  %228 = load ptr, ptr %9, align 8, !tbaa !22
  %229 = getelementptr inbounds nuw %struct.GEQContext, ptr %228, i32 0, i32 1
  %230 = load i32, ptr %13, align 4, !tbaa !24
  %231 = sext i32 %230 to i64
  %232 = getelementptr inbounds [4 x [32 x ptr]], ptr %229, i64 0, i64 %231
  %233 = load i32, ptr %7, align 4, !tbaa !24
  %234 = sext i32 %233 to i64
  %235 = getelementptr inbounds [32 x ptr], ptr %232, i64 0, i64 %234
  %236 = load ptr, ptr %235, align 8, !tbaa !37
  %237 = getelementptr inbounds [8 x double], ptr %19, i64 0, i64 0
  %238 = load ptr, ptr %9, align 8, !tbaa !22
  %239 = call nsz double @av_expr_eval(ptr noundef %236, ptr noundef %237, ptr noundef %238)
  %240 = fptrunc nsz double %239 to float
  %241 = load ptr, ptr %22, align 8, !tbaa !101
  %242 = load i32, ptr %17, align 4, !tbaa !24
  %243 = sext i32 %242 to i64
  %244 = getelementptr inbounds float, ptr %241, i64 %243
  store float %240, ptr %244, align 4, !tbaa !102
  br label %245

245:                                              ; preds = %224
  %246 = load i32, ptr %17, align 4, !tbaa !24
  %247 = add nsw i32 %246, 1
  store i32 %247, ptr %17, align 4, !tbaa !24
  br label %220, !llvm.loop !113

248:                                              ; preds = %220
  %249 = load i32, ptr %14, align 4, !tbaa !24
  %250 = sdiv i32 %249, 4
  %251 = load ptr, ptr %22, align 8, !tbaa !101
  %252 = sext i32 %250 to i64
  %253 = getelementptr inbounds float, ptr %251, i64 %252
  store ptr %253, ptr %22, align 8, !tbaa !101
  br label %254

254:                                              ; preds = %248
  %255 = load i32, ptr %18, align 4, !tbaa !24
  %256 = add nsw i32 %255, 1
  store i32 %256, ptr %18, align 4, !tbaa !24
  br label %212, !llvm.loop !114

257:                                              ; preds = %212
  call void @llvm.lifetime.end.p0(i64 8, ptr %22) #11
  br label %258

258:                                              ; preds = %257, %200
  br label %259

259:                                              ; preds = %258, %138
  call void @llvm.lifetime.end.p0(i64 64, ptr %19) #11
  call void @llvm.lifetime.end.p0(i64 4, ptr %18) #11
  call void @llvm.lifetime.end.p0(i64 4, ptr %17) #11
  call void @llvm.lifetime.end.p0(i64 4, ptr %16) #11
  call void @llvm.lifetime.end.p0(i64 4, ptr %15) #11
  call void @llvm.lifetime.end.p0(i64 4, ptr %14) #11
  call void @llvm.lifetime.end.p0(i64 4, ptr %13) #11
  call void @llvm.lifetime.end.p0(i64 4, ptr %12) #11
  call void @llvm.lifetime.end.p0(i64 4, ptr %11) #11
  call void @llvm.lifetime.end.p0(i64 8, ptr %10) #11
  call void @llvm.lifetime.end.p0(i64 8, ptr %9) #11
  ret i32 0
}