; Function Attrs: nounwind uwtable
define internal noundef i32 @slice_geq_filter(ptr noundef readonly captures(none) %0, ptr noundef readonly captures(none) %1, i32 noundef %2, i32 noundef %3) #1 {
  %5 = alloca [8 x double], align 16
  %6 = getelementptr inbounds nuw i8, ptr %0, i64 72
  %7 = load ptr, ptr %6, align 8, !tbaa !4
  %8 = load i32, ptr %1, align 4, !tbaa !71
  %9 = getelementptr inbounds nuw i8, ptr %1, i64 4
  %10 = load i32, ptr %9, align 4, !tbaa !69
  %11 = getelementptr inbounds nuw i8, ptr %1, i64 8
  %12 = load i32, ptr %11, align 4, !tbaa !72
  %13 = getelementptr inbounds nuw i8, ptr %1, i64 12
  %14 = load i32, ptr %13, align 4, !tbaa !73
  %15 = mul nsw i32 %8, %2
  %16 = sdiv i32 %15, %3
  %17 = add nsw i32 %2, 1
  %18 = mul nsw i32 %8, %17
  %19 = sdiv i32 %18, %3
  call void @llvm.lifetime.start.p0(i64 64, ptr nonnull %5) #13
  %20 = getelementptr inbounds nuw i8, ptr %7, i64 1136
  %21 = load double, ptr %20, align 8, !tbaa !53
  %22 = getelementptr inbounds nuw i8, ptr %5, i64 16
  store double %21, ptr %22, align 16, !tbaa !53
  %23 = getelementptr inbounds nuw i8, ptr %7, i64 1144
  %24 = load double, ptr %23, align 8, !tbaa !53
  %25 = getelementptr inbounds nuw i8, ptr %5, i64 24
  store double %24, ptr %25, align 8, !tbaa !53
  %26 = getelementptr inbounds nuw i8, ptr %7, i64 1152
  %27 = load double, ptr %26, align 8, !tbaa !53
  %28 = getelementptr inbounds nuw i8, ptr %5, i64 32
  store double %27, ptr %28, align 16, !tbaa !53
  %29 = getelementptr inbounds nuw i8, ptr %7, i64 1160
  %30 = load double, ptr %29, align 8, !tbaa !53
  %31 = getelementptr inbounds nuw i8, ptr %5, i64 40
  store double %30, ptr %31, align 8, !tbaa !53
  %32 = getelementptr inbounds nuw i8, ptr %7, i64 1168
  %33 = load double, ptr %32, align 8, !tbaa !53
  %34 = getelementptr inbounds nuw i8, ptr %5, i64 48
  store double %33, ptr %34, align 16, !tbaa !53
  %35 = getelementptr inbounds nuw i8, ptr %7, i64 1176
  %36 = load double, ptr %35, align 8, !tbaa !53
  %37 = getelementptr inbounds nuw i8, ptr %5, i64 56
  store double %36, ptr %37, align 8, !tbaa !53
  %38 = getelementptr inbounds nuw i8, ptr %7, i64 1204
  %39 = load i32, ptr %38, align 4, !tbaa !26
  %40 = icmp eq i32 %39, 8
  br i1 %40, label %41, label %65

41:                                               ; preds = %4
  %42 = icmp slt i32 %16, %19
  br i1 %42, label %.lr.ph104, label %.loopexit

.lr.ph104:                                        ; preds = %41
  %43 = getelementptr inbounds nuw i8, ptr %5, i64 8
  %44 = icmp sgt i32 %10, 0
  %45 = getelementptr inbounds nuw i8, ptr %7, i64 8
  %46 = sext i32 %12 to i64
  %47 = sext i32 %2 to i64
  %48 = getelementptr inbounds [4 x [32 x ptr]], ptr %45, i64 0, i64 %46, i64 %47
  %49 = sext i32 %14 to i64
  br i1 %44, label %.lr.ph.us105.preheader, label %.loopexit

.lr.ph.us105.preheader:                           ; preds = %.lr.ph104
  %50 = getelementptr inbounds nuw i8, ptr %7, i64 1096
  %51 = load ptr, ptr %50, align 8, !tbaa !66
  %52 = mul nsw i32 %16, %14
  %53 = sext i32 %52 to i64
  %54 = getelementptr inbounds i8, ptr %51, i64 %53
  %wide.trip.count120 = zext nneg i32 %10 to i64
  br label %.lr.ph.us105

.lr.ph.us105:                                     ; preds = %.lr.ph.us105.preheader, %._crit_edge.us106
  %.080102.us = phi ptr [ %63, %._crit_edge.us106 ], [ %54, %.lr.ph.us105.preheader ]
  %.081101.us = phi i32 [ %64, %._crit_edge.us106 ], [ %16, %.lr.ph.us105.preheader ]
  %55 = sitofp i32 %.081101.us to double
  store double %55, ptr %43, align 8, !tbaa !53
  br label %56

56:                                               ; preds = %.lr.ph.us105, %56
  %indvars.iv117 = phi i64 [ 0, %.lr.ph.us105 ], [ %indvars.iv.next118, %56 ]
  %57 = trunc nuw nsw i64 %indvars.iv117 to i32
  %58 = uitofp nneg i32 %57 to double
  store double %58, ptr %5, align 16, !tbaa !53
  %59 = load ptr, ptr %48, align 8, !tbaa !30
  %60 = call nsz double @av_expr_eval(ptr noundef %59, ptr noundef nonnull %5, ptr noundef nonnull %7) #13
  %61 = fptoui double %60 to i8
  %62 = getelementptr inbounds nuw i8, ptr %.080102.us, i64 %indvars.iv117
  store i8 %61, ptr %62, align 1, !tbaa !83
  %indvars.iv.next118 = add nuw nsw i64 %indvars.iv117, 1
  %exitcond121.not = icmp eq i64 %indvars.iv.next118, %wide.trip.count120
  br i1 %exitcond121.not, label %._crit_edge.us106, label %56, !llvm.loop !93

._crit_edge.us106:                                ; preds = %56
  %63 = getelementptr inbounds i8, ptr %.080102.us, i64 %49
  %64 = add nsw i32 %.081101.us, 1
  %exitcond122.not = icmp eq i32 %64, %19
  br i1 %exitcond122.not, label %.loopexit, label %.lr.ph.us105, !llvm.loop !94

65:                                               ; preds = %4
  %66 = icmp slt i32 %39, 17
  %67 = icmp slt i32 %16, %19
  br i1 %66, label %68, label %92

68:                                               ; preds = %65
  br i1 %67, label %.lr.ph97, label %.loopexit

.lr.ph97:                                         ; preds = %68
  %69 = sdiv i32 %14, 2
  %70 = getelementptr inbounds nuw i8, ptr %5, i64 8
  %71 = icmp sgt i32 %10, 0
  %72 = getelementptr inbounds nuw i8, ptr %7, i64 8
  %73 = sext i32 %12 to i64
  %74 = sext i32 %2 to i64
  %75 = getelementptr inbounds [4 x [32 x ptr]], ptr %72, i64 0, i64 %73, i64 %74
  %76 = sext i32 %69 to i64
  br i1 %71, label %.lr.ph.us98.preheader, label %.loopexit

.lr.ph.us98.preheader:                            ; preds = %.lr.ph97
  %77 = getelementptr inbounds nuw i8, ptr %7, i64 1104
  %78 = load ptr, ptr %77, align 8, !tbaa !67
  %79 = mul nsw i32 %69, %16
  %80 = sext i32 %79 to i64
  %81 = getelementptr inbounds i16, ptr %78, i64 %80
  %wide.trip.count114 = zext nneg i32 %10 to i64
  br label %.lr.ph.us98

.lr.ph.us98:                                      ; preds = %.lr.ph.us98.preheader, %._crit_edge.us99
  %.07995.us = phi ptr [ %90, %._crit_edge.us99 ], [ %81, %.lr.ph.us98.preheader ]
  %.194.us = phi i32 [ %91, %._crit_edge.us99 ], [ %16, %.lr.ph.us98.preheader ]
  %82 = sitofp i32 %.194.us to double
  store double %82, ptr %70, align 8, !tbaa !53
  br label %83

83:                                               ; preds = %.lr.ph.us98, %83
  %indvars.iv111 = phi i64 [ 0, %.lr.ph.us98 ], [ %indvars.iv.next112, %83 ]
  %84 = trunc nuw nsw i64 %indvars.iv111 to i32
  %85 = uitofp nneg i32 %84 to double
  store double %85, ptr %5, align 16, !tbaa !53
  %86 = load ptr, ptr %75, align 8, !tbaa !30
  %87 = call nsz double @av_expr_eval(ptr noundef %86, ptr noundef nonnull %5, ptr noundef nonnull %7) #13
  %88 = fptoui double %87 to i16
  %89 = getelementptr inbounds nuw i16, ptr %.07995.us, i64 %indvars.iv111
  store i16 %88, ptr %89, align 2, !tbaa !75
  %indvars.iv.next112 = add nuw nsw i64 %indvars.iv111, 1
  %exitcond115.not = icmp eq i64 %indvars.iv.next112, %wide.trip.count114
  br i1 %exitcond115.not, label %._crit_edge.us99, label %83, !llvm.loop !95

._crit_edge.us99:                                 ; preds = %83
  %90 = getelementptr inbounds i16, ptr %.07995.us, i64 %76
  %91 = add nsw i32 %.194.us, 1
  %exitcond116.not = icmp eq i32 %91, %19
  br i1 %exitcond116.not, label %.loopexit, label %.lr.ph.us98, !llvm.loop !96

92:                                               ; preds = %65
  br i1 %67, label %.lr.ph92, label %.loopexit

.lr.ph92:                                         ; preds = %92
  %93 = sdiv i32 %14, 4
  %94 = getelementptr inbounds nuw i8, ptr %5, i64 8
  %95 = icmp sgt i32 %10, 0
  %96 = getelementptr inbounds nuw i8, ptr %7, i64 8
  %97 = sext i32 %12 to i64
  %98 = sext i32 %2 to i64
  %99 = getelementptr inbounds [4 x [32 x ptr]], ptr %96, i64 0, i64 %97, i64 %98
  %100 = sext i32 %93 to i64
  br i1 %95, label %.lr.ph.us.preheader, label %.loopexit

.lr.ph.us.preheader:                              ; preds = %.lr.ph92
  %101 = getelementptr inbounds nuw i8, ptr %7, i64 1112
  %102 = load ptr, ptr %101, align 8, !tbaa !68
  %103 = mul nsw i32 %93, %16
  %104 = sext i32 %103 to i64
  %105 = getelementptr inbounds float, ptr %102, i64 %104
  %wide.trip.count = zext nneg i32 %10 to i64
  br label %.lr.ph.us

.lr.ph.us:                                        ; preds = %.lr.ph.us.preheader, %._crit_edge.us
  %.090.us = phi ptr [ %114, %._crit_edge.us ], [ %105, %.lr.ph.us.preheader ]
  %.289.us = phi i32 [ %115, %._crit_edge.us ], [ %16, %.lr.ph.us.preheader ]
  %106 = sitofp i32 %.289.us to double
  store double %106, ptr %94, align 8, !tbaa !53
  br label %107

107:                                              ; preds = %.lr.ph.us, %107
  %indvars.iv = phi i64 [ 0, %.lr.ph.us ], [ %indvars.iv.next, %107 ]
  %108 = trunc nuw nsw i64 %indvars.iv to i32
  %109 = uitofp nneg i32 %108 to double
  store double %109, ptr %5, align 16, !tbaa !53
  %110 = load ptr, ptr %99, align 8, !tbaa !30
  %111 = call nsz double @av_expr_eval(ptr noundef %110, ptr noundef nonnull %5, ptr noundef nonnull %7) #13
  %112 = fptrunc nsz double %111 to float
  %113 = getelementptr inbounds nuw float, ptr %.090.us, i64 %indvars.iv
  store float %112, ptr %113, align 4, !tbaa !80
  %indvars.iv.next = add nuw nsw i64 %indvars.iv, 1
  %exitcond.not = icmp eq i64 %indvars.iv.next, %wide.trip.count
  br i1 %exitcond.not, label %._crit_edge.us, label %107, !llvm.loop !97

._crit_edge.us:                                   ; preds = %107
  %114 = getelementptr inbounds float, ptr %.090.us, i64 %100
  %115 = add nsw i32 %.289.us, 1
  %exitcond110.not = icmp eq i32 %115, %19
  br i1 %exitcond110.not, label %.loopexit, label %.lr.ph.us, !llvm.loop !98

.loopexit:                                        ; preds = %._crit_edge.us, %._crit_edge.us99, %._crit_edge.us106, %.lr.ph92, %.lr.ph97, %.lr.ph104, %92, %68, %41
  call void @llvm.lifetime.end.p0(i64 64, ptr nonnull %5) #13
  ret i32 0
}